; ModuleID = '12/898.c'
source_filename = "12/898.c"
target datalayout = "e-m:e-p270:32:32-p271:32:32-p272:64:64-i64:64-f80:128-n8:16:32:64-S128"
target triple = "x86_64-pc-linux-gnu"

@.str = private unnamed_addr constant [3 x i8] c"%d\00", align 1
@.str.1 = private unnamed_addr constant [4 x i8] c"%d\0A\00", align 1

; Function Attrs: noinline nounwind uwtable
define dso_local i32 @main() #0 {
  %1 = alloca i32, align 4
  %2 = alloca [16 x i32], align 16
  %3 = alloca i32, align 4
  %4 = alloca i32, align 4
  %5 = alloca i32, align 4
  %6 = alloca i32, align 4
  %7 = alloca i32, align 4
  store i32 0, i32* %1, align 4
  store i32 0, i32* %7, align 4
  br label %8

8:                                                ; preds = %77, %0
  store i32 0, i32* %7, align 4
  store i32 0, i32* %3, align 4
  br label %9

9:                                                ; preds = %24, %8
  %10 = load i32, i32* %3, align 4
  %11 = icmp slt i32 %10, 16
  br i1 %11, label %12, label %27

12:                                               ; preds = %9
  %13 = load i32, i32* %3, align 4
  %14 = sext i32 %13 to i64
  %15 = getelementptr inbounds [16 x i32], [16 x i32]* %2, i64 0, i64 %14
  %16 = call i32 (i8*, ...) @__isoc99_scanf(i8* getelementptr inbounds ([3 x i8], [3 x i8]* @.str, i64 0, i64 0), i32* %15)
  %17 = load i32, i32* %3, align 4
  %18 = sext i32 %17 to i64
  %19 = getelementptr inbounds [16 x i32], [16 x i32]* %2, i64 0, i64 %18
  %20 = load i32, i32* %19, align 4
  %21 = icmp eq i32 %20, 0
  br i1 %21, label %22, label %23

22:                                               ; preds = %12
  br label %27

23:                                               ; preds = %12
  br label %24

24:                                               ; preds = %23
  %25 = load i32, i32* %3, align 4
  %26 = add nsw i32 %25, 1
  store i32 %26, i32* %3, align 4
  br label %9

27:                                               ; preds = %22, %9
  %28 = getelementptr inbounds [16 x i32], [16 x i32]* %2, i64 0, i64 0
  %29 = load i32, i32* %28, align 16
  %30 = icmp eq i32 %29, -1
  br i1 %30, label %31, label %32

31:                                               ; preds = %27
  br label %80

32:                                               ; preds = %27
  %33 = getelementptr inbounds [16 x i32], [16 x i32]* %2, i64 0, i64 0
  %34 = load i32, i32* %33, align 16
  %35 = icmp eq i32 %34, 0
  br i1 %35, label %36, label %39

36:                                               ; preds = %32
  %37 = load i32, i32* %7, align 4
  %38 = call i32 (i8*, ...) @printf(i8* getelementptr inbounds ([3 x i8], [3 x i8]* @.str, i64 0, i64 0), i32 %37)
  br label %39

39:                                               ; preds = %36, %32
  store i32 0, i32* %4, align 4
  br label %40

40:                                               ; preds = %74, %39
  %41 = load i32, i32* %4, align 4
  %42 = load i32, i32* %3, align 4
  %43 = icmp slt i32 %41, %42
  br i1 %43, label %44, label %77

44:                                               ; preds = %40
  store i32 0, i32* %5, align 4
  br label %45

45:                                               ; preds = %70, %44
  %46 = load i32, i32* %5, align 4
  %47 = load i32, i32* %3, align 4
  %48 = icmp slt i32 %46, %47
  br i1 %48, label %49, label %73

49:                                               ; preds = %45
  %50 = load i32, i32* %4, align 4
  %51 = sext i32 %50 to i64
  %52 = getelementptr inbounds [16 x i32], [16 x i32]* %2, i64 0, i64 %51
  %53 = load i32, i32* %52, align 4
  %54 = load i32, i32* %5, align 4
  %55 = sext i32 %54 to i64
  %56 = getelementptr inbounds [16 x i32], [16 x i32]* %2, i64 0, i64 %55
  %57 = load i32, i32* %56, align 4
  %58 = sub nsw i32 %53, %57
  %59 = load i32, i32* %5, align 4
  %60 = sext i32 %59 to i64
  %61 = getelementptr inbounds [16 x i32], [16 x i32]* %2, i64 0, i64 %60
  %62 = load i32, i32* %61, align 4
  %63 = sub nsw i32 %58, %62
  store i32 %63, i32* %6, align 4
  %64 = load i32, i32* %6, align 4
  %65 = icmp eq i32 %64, 0
  br i1 %65, label %66, label %69

66:                                               ; preds = %49
  %67 = load i32, i32* %7, align 4
  %68 = add nsw i32 %67, 1
  store i32 %68, i32* %7, align 4
  br label %69

69:                                               ; preds = %66, %49
  br label %70

70:                                               ; preds = %69
  %71 = load i32, i32* %5, align 4
  %72 = add nsw i32 %71, 1
  store i32 %72, i32* %5, align 4
  br label %45

73:                                               ; preds = %45
  br label %74

74:                                               ; preds = %73
  %75 = load i32, i32* %4, align 4
  %76 = add nsw i32 %75, 1
  store i32 %76, i32* %4, align 4
  br label %40

77:                                               ; preds = %40
  %78 = load i32, i32* %7, align 4
  %79 = call i32 (i8*, ...) @printf(i8* getelementptr inbounds ([4 x i8], [4 x i8]* @.str.1, i64 0, i64 0), i32 %78)
  br label %8

80:                                               ; preds = %31
  ret i32 0
}

declare dso_local i32 @__isoc99_scanf(i8*, ...) #1

declare dso_local i32 @printf(i8*, ...) #1


!llvm.module.flags = !{!0}
!llvm.ident = !{!1}

!0 = !{i32 1, !"wchar_size", i32 4}
!1 = !{!"clang version 10.0.0-4ubuntu1 "}
